Certificate:
    Data:
        Version: 3 (0x2)
        Serial Number: 4660 (0x1234)
        Signature Algorithm: sha1WithRSAEncryption
        Issuer: C=US, ST=NY, L=New York, O=Bloomberg LP, OU=CTO Office, CN=Bloomberg LP CA/emailAddress=open-tech@bloomberg.net
        Validity
            Not Before: Feb 27 06:00:00 2015 GMT
            Not After : Mar  3 06:00:00 2015 GMT
        Subject: C=US, ST=NY, L=New York, O=Bloomberg LP, OU=CTO Office, CN=hacklondon_spring_2015_003/emailAddress=open-tech@bloomberg.net
        Subject Public Key Info:
            Public Key Algorithm: rsaEncryption
            RSA Public Key: (1024 bit)
                Modulus (1024 bit):
                    00:c3:7e:43:7c:b9:5d:7a:03:09:4c:ab:5c:38:45:
                    07:b8:88:da:f2:ae:a5:ba:2c:d4:0a:6e:e0:51:32:
                    4b:52:14:70:d9:89:74:5e:3d:94:7f:d9:e6:30:5a:
                    ee:65:6a:d7:7c:25:32:9b:9c:df:95:06:bd:81:54:
                    dd:98:80:dc:b4:c1:42:fa:e0:1d:fb:6a:30:72:e3:
                    12:04:cf:e1:a9:89:12:05:cf:b3:8a:40:06:21:fc:
                    af:e4:da:fc:f7:97:40:53:1d:05:96:6f:55:84:6e:
                    24:bc:c7:df:3a:d2:22:74:e1:08:38:2b:c4:6a:ba:
                    a0:02:9a:cc:4a:01:c1:f6:ad
                Exponent: 65537 (0x10001)
        X509v3 extensions:
            X509v3 Basic Constraints: 
                CA:FALSE
            Netscape Comment: 
                Easy-RSA Generated Certificate
            X509v3 Subject Key Identifier: 
                11:F1:0D:24:DC:B8:74:9E:F4:C7:7A:2D:77:D0:B0:CD:6C:8B:88:1B
            X509v3 Authority Key Identifier: 
                keyid:F3:21:76:1F:DA:B5:E7:03:FC:ED:D7:71:B8:1C:55:2D:7E:65:5F:14
                DirName:/C=US/ST=NY/L=New York/O=Bloomberg LP/OU=CTO Office/CN=Bloomberg LP CA/emailAddress=open-tech@bloomberg.net
                serial:81:F3:7A:1C:BC:C6:E8:A2

            X509v3 Extended Key Usage: 
                TLS Web Client Authentication
            X509v3 Key Usage: 
                Digital Signature
    Signature Algorithm: sha1WithRSAEncryption
        11:4d:08:8d:49:9e:36:e9:ab:b2:26:9e:0f:7c:05:dd:00:9a:
        d1:6a:fd:e9:67:f3:f6:db:5f:a8:ab:7a:0b:36:4d:92:aa:12:
        8a:1f:79:c8:3a:6a:79:d1:16:0d:07:6d:7e:14:59:a6:ec:a2:
        a7:b6:4a:d5:48:a3:cd:15:24:d4:f1:4c:f8:8d:4d:9f:58:81:
        14:ed:3c:4a:96:b5:0f:0d:75:5b:da:59:ab:26:5f:11:e9:70:
        dd:a2:aa:b3:9e:16:e3:f0:ac:e4:70:d6:92:71:e6:b8:fc:36:
        71:df:49:6f:c7:15:93:bd:8f:64:01:39:3d:f6:3d:3a:90:69:
        64:08
-----BEGIN CERTIFICATE-----
MIIEDjCCA3egAwIBAgICEjQwDQYJKoZIhvcNAQEFBQAwgZsxCzAJBgNVBAYTAlVT
MQswCQYDVQQIEwJOWTERMA8GA1UEBxMITmV3IFlvcmsxFTATBgNVBAoTDEJsb29t
YmVyZyBMUDETMBEGA1UECxMKQ1RPIE9mZmljZTEYMBYGA1UEAxMPQmxvb21iZXJn
IExQIENBMSYwJAYJKoZIhvcNAQkBFhdvcGVuLXRlY2hAYmxvb21iZXJnLm5ldDAe
Fw0xNTAyMjcwNjAwMDBaFw0xNTAzMDMwNjAwMDBaMIGmMQswCQYDVQQGEwJVUzEL
MAkGA1UECBMCTlkxETAPBgNVBAcTCE5ldyBZb3JrMRUwEwYDVQQKEwxCbG9vbWJl
cmcgTFAxEzARBgNVBAsTCkNUTyBPZmZpY2UxIzAhBgNVBAMUGmhhY2tsb25kb25f
c3ByaW5nXzIwMTVfMDAzMSYwJAYJKoZIhvcNAQkBFhdvcGVuLXRlY2hAYmxvb21i
ZXJnLm5ldDCBnzANBgkqhkiG9w0BAQEFAAOBjQAwgYkCgYEAw35DfLldegMJTKtc
OEUHuIja8q6luizUCm7gUTJLUhRw2Yl0Xj2Uf9nmMFruZWrXfCUym5zflQa9gVTd
mIDctMFC+uAd+2owcuMSBM/hqYkSBc+zikAGIfyv5Nr895dAUx0Flm9VhG4kvMff
OtIidOEIOCvEarqgAprMSgHB9q0CAwEAAaOCAVIwggFOMAkGA1UdEwQCMAAwLQYJ
YIZIAYb4QgENBCAWHkVhc3ktUlNBIEdlbmVyYXRlZCBDZXJ0aWZpY2F0ZTAdBgNV
HQ4EFgQUEfENJNy4dJ70x3otd9CwzWyLiBswgdAGA1UdIwSByDCBxYAU8yF2H9q1
5wP87ddxuBxVLX5lXxShgaGkgZ4wgZsxCzAJBgNVBAYTAlVTMQswCQYDVQQIEwJO
WTERMA8GA1UEBxMITmV3IFlvcmsxFTATBgNVBAoTDEJsb29tYmVyZyBMUDETMBEG
A1UECxMKQ1RPIE9mZmljZTEYMBYGA1UEAxMPQmxvb21iZXJnIExQIENBMSYwJAYJ
KoZIhvcNAQkBFhdvcGVuLXRlY2hAYmxvb21iZXJnLm5ldIIJAIHzehy8xuiiMBMG
A1UdJQQMMAoGCCsGAQUFBwMCMAsGA1UdDwQEAwIHgDANBgkqhkiG9w0BAQUFAAOB
gQARTQiNSZ426auyJp4PfAXdAJrRav3pZ/P221+oq3oLNk2SqhKKH3nIOmp50RYN
B21+FFmm7KKntkrVSKPNFSTU8Uz4jU2fWIEU7TxKlrUPDXVb2lmrJl8R6XDdoqqz
nhbj8KzkcNaScea4/DZx30lvxxWTvY9kATk99j06kGlkCA==
-----END CERTIFICATE-----
